target datalayout = "e-m:e-p270:32:32-p271:32:32-p272:64:64-i64:64-i128:128-f80:128-n8:16:32:64-S128"
target triple = "x86_64-pc-linux-gnu"

%"class.duckdb_re2::Regexp" = type { i8, i8, i16, i16, i16, %union.anon, ptr, %union.anon.0 }
%union.anon = type { ptr }
%union.anon.0 = type { %struct.anon.1 }
%struct.anon.1 = type { i32, ptr }
%"class.std::__cxx11::basic_string" = type { %"struct.std::__cxx11::basic_string<char>::_Alloc_hider", i64, %union.anon.4 }
%"struct.std::__cxx11::basic_string<char>::_Alloc_hider" = type { ptr }
%union.anon.4 = type { i64, [8 x i8] }
%struct.anon.2 = type { i32, ptr }

@_ZN10duckdb_re26RegexpC1ENS_8RegexpOpENS0_10ParseFlagsE = hidden unnamed_addr alias void (ptr, i32, i32), ptr @_ZN10duckdb_re26RegexpC2ENS_8RegexpOpENS0_10ParseFlagsE

; Function Attrs: mustprogress nounwind uwtable
define linkonce_odr void @_ZNSt11char_traitsIcE6assignERcRKc(ptr noundef nonnull align 1 dereferenceable(1) %0, ptr noundef nonnull align 1 dereferenceable(1) %1) #0 comdat align 2 {
  %3 = alloca ptr, align 8
  %4 = alloca ptr, align 8
  store ptr %0, ptr %3, align 8, !tbaa !23
  store ptr %1, ptr %4, align 8, !tbaa !23
  %5 = load ptr, ptr %4, align 8, !tbaa !23
  %6 = load i8, ptr %5, align 1, !tbaa !20
  %7 = load ptr, ptr %3, align 8, !tbaa !23
  store i8 %6, ptr %7, align 1, !tbaa !20
  ret void
}

; Function Attrs: mustprogress nounwind uwtable
define available_externally noundef ptr @_ZNKSt7__cxx1112basic_stringIcSt11char_traitsIcESaIcEE7_M_dataEv(ptr noundef nonnull align 8 dereferenceable(32) %0) #0 align 2 {
  %2 = alloca ptr, align 8
  store ptr %0, ptr %2, align 8, !tbaa !46
  %3 = load ptr, ptr %2, align 8
  %4 = getelementptr inbounds nuw %"class.std::__cxx11::basic_string", ptr %3, i32 0, i32 0
  %5 = getelementptr inbounds nuw %"struct.std::__cxx11::basic_string<char>::_Alloc_hider", ptr %4, i32 0, i32 0
  %6 = load ptr, ptr %5, align 8, !tbaa !358
  ret ptr %6
}

; Function Attrs: mustprogress nounwind uwtable
define available_externally void @_ZNSt7__cxx1112basic_stringIcSt11char_traitsIcESaIcEE9_M_lengthEm(ptr noundef nonnull align 8 dereferenceable(32) %0, i64 noundef %1) #0 align 2 {
  %3 = alloca ptr, align 8
  %4 = alloca i64, align 8
  store ptr %0, ptr %3, align 8, !tbaa !46
  store i64 %1, ptr %4, align 8, !tbaa !85
  %5 = load ptr, ptr %3, align 8
  %6 = load i64, ptr %4, align 8, !tbaa !85
  %7 = getelementptr inbounds nuw %"class.std::__cxx11::basic_string", ptr %5, i32 0, i32 1
  store i64 %6, ptr %7, align 8, !tbaa !357
  ret void
}

; Function Attrs: noinline noreturn nounwind uwtable
define linkonce_odr hidden void @__clang_call_terminate(ptr noundef %0) #5 comdat {
  %2 = call ptr @__cxa_begin_catch(ptr %0) #18
  call void @_ZSt9terminatev() #20
  unreachable
}

; Function Attrs: mustprogress uwtable
define available_externally void @_ZNSt7__cxx1112basic_stringIcSt11char_traitsIcESaIcEE13_M_set_lengthEm(ptr noundef nonnull align 8 dereferenceable(32) %0, i64 noundef %1) #4 align 2 {
  %3 = alloca ptr, align 8
  %4 = alloca i64, align 8
  %5 = alloca i8, align 1
  store ptr %0, ptr %3, align 8, !tbaa !46
  store i64 %1, ptr %4, align 8, !tbaa !85
  %6 = load ptr, ptr %3, align 8
  %7 = load i64, ptr %4, align 8, !tbaa !85
  call void @_ZNSt7__cxx1112basic_stringIcSt11char_traitsIcESaIcEE9_M_lengthEm(ptr noundef nonnull align 8 dereferenceable(32) %6, i64 noundef %7)
  %8 = call noundef ptr @_ZNKSt7__cxx1112basic_stringIcSt11char_traitsIcESaIcEE7_M_dataEv(ptr noundef nonnull align 8 dereferenceable(32) %6)
  %9 = load i64, ptr %4, align 8, !tbaa !85
  %10 = getelementptr inbounds nuw i8, ptr %8, i64 %9
  call void @llvm.lifetime.start.p0(i64 1, ptr %5) #18
  store i8 0, ptr %5, align 1, !tbaa !20
  call void @_ZNSt11char_traitsIcE6assignERcRKc(ptr noundef nonnull align 1 dereferenceable(1) %10, ptr noundef nonnull align 1 dereferenceable(1) %5) #18
  call void @llvm.lifetime.end.p0(i64 1, ptr %5) #18
  ret void
}

; Function Attrs: inlinehint mustprogress nounwind uwtable
define linkonce_odr hidden noundef i32 @_ZN10duckdb_re2anENS_6Regexp10ParseFlagsES1_(i32 noundef %0, i32 noundef %1) #7 comdat {
  %3 = alloca i32, align 4
  %4 = alloca i32, align 4
  store i32 %0, ptr %3, align 4, !tbaa !10
  store i32 %1, ptr %4, align 4, !tbaa !10
  %5 = load i32, ptr %3, align 4, !tbaa !10
  %6 = load i32, ptr %4, align 4, !tbaa !10
  %7 = and i32 %5, %6
  ret i32 %7
}

; Function Attrs: mustprogress uwtable
define hidden noundef ptr @_ZN10duckdb_re26Regexp6ConcatEPPS0_iNS0_10ParseFlagsE(ptr noundef %0, i32 noundef %1, i32 noundef %2) #4 align 2 {
  %4 = alloca ptr, align 8
  %5 = alloca i32, align 4
  %6 = alloca i32, align 4
  store ptr %0, ptr %4, align 8, !tbaa !60
  store i32 %1, ptr %5, align 4, !tbaa !29
  store i32 %2, ptr %6, align 4, !tbaa !10
  %7 = load ptr, ptr %4, align 8, !tbaa !60
  %8 = load i32, ptr %5, align 4, !tbaa !29
  %9 = load i32, ptr %6, align 4, !tbaa !10
  %10 = call noundef ptr @_ZN10duckdb_re26Regexp17ConcatOrAlternateENS_8RegexpOpEPPS0_iNS0_10ParseFlagsEb(i32 noundef 5, ptr noundef %7, i32 noundef %8, i32 noundef %9, i1 noundef zeroext false)
  ret ptr %10
}

; Function Attrs: mustprogress nounwind uwtable
define linkonce_odr hidden noundef i32 @_ZN10duckdb_re26Regexp11parse_flagsEv(ptr noundef nonnull align 8 dereferenceable(40) %0) #0 comdat align 2 {
  %2 = alloca ptr, align 8
  store ptr %0, ptr %2, align 8, !tbaa !3
  %3 = load ptr, ptr %2, align 8
  %4 = getelementptr inbounds nuw %"class.duckdb_re2::Regexp", ptr %3, i32 0, i32 2
  %5 = load i16, ptr %4, align 2, !tbaa !16
  %6 = zext i16 %5 to i32
  ret i32 %6
}

; Function Attrs: mustprogress nounwind uwtable
define linkonce_odr hidden noundef ptr @_ZN10duckdb_re26Regexp3subEv(ptr noundef nonnull align 8 dereferenceable(40) %0) #0 comdat align 2 {
  %2 = alloca ptr, align 8
  %3 = alloca ptr, align 8
  store ptr %0, ptr %3, align 8, !tbaa !3
  %4 = load ptr, ptr %3, align 8
  %5 = getelementptr inbounds nuw %"class.duckdb_re2::Regexp", ptr %4, i32 0, i32 4
  %6 = load i16, ptr %5, align 2, !tbaa !18
  %7 = zext i16 %6 to i32
  %8 = icmp sle i32 %7, 1
  br i1 %8, label %9, label %11

9:                                                ; preds = %1
  %10 = getelementptr inbounds nuw %"class.duckdb_re2::Regexp", ptr %4, i32 0, i32 5
  store ptr %10, ptr %2, align 8
  br label %14

11:                                               ; preds = %1
  %12 = getelementptr inbounds nuw %"class.duckdb_re2::Regexp", ptr %4, i32 0, i32 5
  %13 = load ptr, ptr %12, align 8, !tbaa !20
  store ptr %13, ptr %2, align 8
  br label %14

14:                                               ; preds = %11, %9
  %15 = load ptr, ptr %2, align 8
  ret ptr %15
}

; Function Attrs: mustprogress nounwind uwtable
define available_externally void @_ZNSt7__cxx1112basic_stringIcSt11char_traitsIcESaIcEE5clearEv(ptr noundef nonnull align 8 dereferenceable(32) %0) #0 align 2 personality ptr @__gxx_personality_v0 {
  %2 = alloca ptr, align 8
  store ptr %0, ptr %2, align 8, !tbaa !46
  %3 = load ptr, ptr %2, align 8
  invoke void @_ZNSt7__cxx1112basic_stringIcSt11char_traitsIcESaIcEE13_M_set_lengthEm(ptr noundef nonnull align 8 dereferenceable(32) %3, i64 noundef 0)
          to label %4 unwind label %5

4:                                                ; preds = %1
  ret void

5:                                                ; preds = %1
  %6 = landingpad { ptr, i32 }
          catch ptr null
  %7 = extractvalue { ptr, i32 } %6, 0
  call void @__clang_call_terminate(ptr %7) #20
  unreachable
}

; Function Attrs: mustprogress uwtable
define hidden noundef zeroext i1 @_ZN10duckdb_re26Regexp14RequiredPrefixEPNSt7__cxx1112basic_stringIcSt11char_traitsIcESaIcEEEPbPPS0_(ptr noundef nonnull align 8 dereferenceable(40) %0, ptr noundef %1, ptr noundef %2, ptr noundef %3) #4 align 2 personality ptr @__gxx_personality_v0 {
  %5 = alloca i1, align 1
  %6 = alloca ptr, align 8
  %7 = alloca ptr, align 8
  %8 = alloca ptr, align 8
  %9 = alloca ptr, align 8
  %10 = alloca i32, align 4
  %11 = alloca i32, align 4
  %12 = alloca ptr, align 8
  %13 = alloca i32, align 4
  %14 = alloca ptr, align 8
  %15 = alloca i32, align 4
  %16 = alloca i8, align 1
  %17 = alloca ptr, align 8
  %18 = alloca i32, align 4
  store ptr %0, ptr %6, align 8, !tbaa !3
  store ptr %1, ptr %7, align 8, !tbaa !46
  store ptr %2, ptr %8, align 8, !tbaa !138
  store ptr %3, ptr %9, align 8, !tbaa !60
  %19 = load ptr, ptr %6, align 8
  %20 = load ptr, ptr %7, align 8, !tbaa !46
  call void @_ZNSt7__cxx1112basic_stringIcSt11char_traitsIcESaIcEE5clearEv(ptr noundef nonnull align 8 dereferenceable(32) %20) #18
  %21 = load ptr, ptr %8, align 8, !tbaa !138
  store i8 0, ptr %21, align 1, !tbaa !77
  %22 = load ptr, ptr %9, align 8, !tbaa !60
  store ptr null, ptr %22, align 8, !tbaa !3
  %23 = getelementptr inbounds nuw %"class.duckdb_re2::Regexp", ptr %19, i32 0, i32 0
  %24 = load i8, ptr %23, align 8, !tbaa !12
  %25 = zext i8 %24 to i32
  %26 = icmp ne i32 %25, 5
  br i1 %26, label %27, label %28

27:                                               ; preds = %4
  store i1 false, ptr %5, align 1
  br label %175

28:                                               ; preds = %4
  call void @llvm.lifetime.start.p0(i64 4, ptr %10) #18
  store i32 0, ptr %10, align 4, !tbaa !29
  br label %29

29:                                               ; preds = %47, %28
  %30 = load i32, ptr %10, align 4, !tbaa !29
  %31 = getelementptr inbounds nuw %"class.duckdb_re2::Regexp", ptr %19, i32 0, i32 4
  %32 = load i16, ptr %31, align 2, !tbaa !18
  %33 = zext i16 %32 to i32
  %34 = icmp slt i32 %30, %33
  br i1 %34, label %35, label %45

35:                                               ; preds = %29
  %36 = call noundef ptr @_ZN10duckdb_re26Regexp3subEv(ptr noundef nonnull align 8 dereferenceable(40) %19)
  %37 = load i32, ptr %10, align 4, !tbaa !29
  %38 = sext i32 %37 to i64
  %39 = getelementptr inbounds ptr, ptr %36, i64 %38
  %40 = load ptr, ptr %39, align 8, !tbaa !3
  %41 = getelementptr inbounds nuw %"class.duckdb_re2::Regexp", ptr %40, i32 0, i32 0
  %42 = load i8, ptr %41, align 8, !tbaa !12
  %43 = zext i8 %42 to i32
  %44 = icmp eq i32 %43, 18
  br label %45

45:                                               ; preds = %35, %29
  %46 = phi i1 [ false, %29 ], [ %44, %35 ]
  br i1 %46, label %47, label %50

47:                                               ; preds = %45
  %48 = load i32, ptr %10, align 4, !tbaa !29
  %49 = add nsw i32 %48, 1
  store i32 %49, ptr %10, align 4, !tbaa !29
  br label %29, !llvm.loop !140

50:                                               ; preds = %45
  %51 = load i32, ptr %10, align 4, !tbaa !29
  %52 = icmp eq i32 %51, 0
  br i1 %52, label %59, label %53

53:                                               ; preds = %50
  %54 = load i32, ptr %10, align 4, !tbaa !29
  %55 = getelementptr inbounds nuw %"class.duckdb_re2::Regexp", ptr %19, i32 0, i32 4
  %56 = load i16, ptr %55, align 2, !tbaa !18
  %57 = zext i16 %56 to i32
  %58 = icmp sge i32 %54, %57
  br i1 %58, label %59, label %60

59:                                               ; preds = %53, %50
  store i1 false, ptr %5, align 1
  store i32 1, ptr %11, align 4
  br label %174

60:                                               ; preds = %53
  call void @llvm.lifetime.start.p0(i64 8, ptr %12) #18
  %61 = call noundef ptr @_ZN10duckdb_re26Regexp3subEv(ptr noundef nonnull align 8 dereferenceable(40) %19)
  %62 = load i32, ptr %10, align 4, !tbaa !29
  %63 = sext i32 %62 to i64
  %64 = getelementptr inbounds ptr, ptr %61, i64 %63
  %65 = load ptr, ptr %64, align 8, !tbaa !3
  store ptr %65, ptr %12, align 8, !tbaa !3
  %66 = load ptr, ptr %12, align 8, !tbaa !3
  %67 = getelementptr inbounds nuw %"class.duckdb_re2::Regexp", ptr %66, i32 0, i32 0
  %68 = load i8, ptr %67, align 8, !tbaa !12
  %69 = zext i8 %68 to i32
  %70 = icmp ne i32 %69, 3
  br i1 %70, label %71, label %78

71:                                               ; preds = %60
  %72 = load ptr, ptr %12, align 8, !tbaa !3
  %73 = getelementptr inbounds nuw %"class.duckdb_re2::Regexp", ptr %72, i32 0, i32 0
  %74 = load i8, ptr %73, align 8, !tbaa !12
  %75 = zext i8 %74 to i32
  %76 = icmp ne i32 %75, 4
  br i1 %76, label %77, label %78

77:                                               ; preds = %71
  store i1 false, ptr %5, align 1
  store i32 1, ptr %11, align 4
  br label %173

78:                                               ; preds = %71, %60
  %79 = load i32, ptr %10, align 4, !tbaa !29
  %80 = add nsw i32 %79, 1
  store i32 %80, ptr %10, align 4, !tbaa !29
  %81 = load i32, ptr %10, align 4, !tbaa !29
  %82 = getelementptr inbounds nuw %"class.duckdb_re2::Regexp", ptr %19, i32 0, i32 4
  %83 = load i16, ptr %82, align 2, !tbaa !18
  %84 = zext i16 %83 to i32
  %85 = icmp slt i32 %81, %84
  br i1 %85, label %86, label %118

86:                                               ; preds = %78
  call void @llvm.lifetime.start.p0(i64 4, ptr %13) #18
  %87 = load i32, ptr %10, align 4, !tbaa !29
  store i32 %87, ptr %13, align 4, !tbaa !29
  br label %88

88:                                               ; preds = %102, %86
  %89 = load i32, ptr %13, align 4, !tbaa !29
  %90 = getelementptr inbounds nuw %"class.duckdb_re2::Regexp", ptr %19, i32 0, i32 4
  %91 = load i16, ptr %90, align 2, !tbaa !18
  %92 = zext i16 %91 to i32
  %93 = icmp slt i32 %89, %92
  br i1 %93, label %95, label %94

94:                                               ; preds = %88
  store i32 4, ptr %11, align 4
  call void @llvm.lifetime.end.p0(i64 4, ptr %13) #18
  br label %105

95:                                               ; preds = %88
  %96 = call noundef ptr @_ZN10duckdb_re26Regexp3subEv(ptr noundef nonnull align 8 dereferenceable(40) %19)
  %97 = load i32, ptr %13, align 4, !tbaa !29
  %98 = sext i32 %97 to i64
  %99 = getelementptr inbounds ptr, ptr %96, i64 %98
  %100 = load ptr, ptr %99, align 8, !tbaa !3
  %101 = call noundef ptr @_ZN10duckdb_re26Regexp6IncrefEv(ptr noundef nonnull align 8 dereferenceable(40) %100)
  br label %102

102:                                              ; preds = %95
  %103 = load i32, ptr %13, align 4, !tbaa !29
  %104 = add nsw i32 %103, 1
  store i32 %104, ptr %13, align 4, !tbaa !29
  br label %88, !llvm.loop !141

105:                                              ; preds = %94
  %106 = call noundef ptr @_ZN10duckdb_re26Regexp3subEv(ptr noundef nonnull align 8 dereferenceable(40) %19)
  %107 = load i32, ptr %10, align 4, !tbaa !29
  %108 = sext i32 %107 to i64
  %109 = getelementptr inbounds ptr, ptr %106, i64 %108
  %110 = getelementptr inbounds nuw %"class.duckdb_re2::Regexp", ptr %19, i32 0, i32 4
  %111 = load i16, ptr %110, align 2, !tbaa !18
  %112 = zext i16 %111 to i32
  %113 = load i32, ptr %10, align 4, !tbaa !29
  %114 = sub nsw i32 %112, %113
  %115 = call noundef i32 @_ZN10duckdb_re26Regexp11parse_flagsEv(ptr noundef nonnull align 8 dereferenceable(40) %19)
  %116 = call noundef ptr @_ZN10duckdb_re26Regexp6ConcatEPPS0_iNS0_10ParseFlagsE(ptr noundef %109, i32 noundef %114, i32 noundef %115)
  %117 = load ptr, ptr %9, align 8, !tbaa !60
  store ptr %116, ptr %117, align 8, !tbaa !3
  br label %128

118:                                              ; preds = %78
  %119 = call noalias noundef nonnull ptr @_Znwm(i64 noundef 40) #22
  %120 = invoke noundef i32 @_ZN10duckdb_re26Regexp11parse_flagsEv(ptr noundef nonnull align 8 dereferenceable(40) %19)
          to label %121 unwind label %124

121:                                              ; preds = %118
  invoke void @_ZN10duckdb_re26RegexpC1ENS_8RegexpOpENS0_10ParseFlagsE(ptr noundef nonnull align 8 dereferenceable(40) %119, i32 noundef 2, i32 noundef %120)
          to label %122 unwind label %124

122:                                              ; preds = %121
  %123 = load ptr, ptr %9, align 8, !tbaa !60
  store ptr %119, ptr %123, align 8, !tbaa !3
  br label %128

124:                                              ; preds = %121, %118
  %125 = landingpad { ptr, i32 }
          cleanup
  %126 = extractvalue { ptr, i32 } %125, 0
  store ptr %126, ptr %14, align 8
  %127 = extractvalue { ptr, i32 } %125, 1
  store i32 %127, ptr %15, align 4
  call void @_ZdlPv(ptr noundef %119) #19
  call void @llvm.lifetime.end.p0(i64 8, ptr %12) #18
  call void @llvm.lifetime.end.p0(i64 4, ptr %10) #18
  br label %177

128:                                              ; preds = %122, %105
  call void @llvm.lifetime.start.p0(i64 1, ptr %16) #18
  %129 = load ptr, ptr %12, align 8, !tbaa !3
  %130 = call noundef i32 @_ZN10duckdb_re26Regexp11parse_flagsEv(ptr noundef nonnull align 8 dereferenceable(40) %129)
  %131 = call noundef i32 @_ZN10duckdb_re2anENS_6Regexp10ParseFlagsES1_(i32 noundef %130, i32 noundef 32)
  %132 = icmp ne i32 %131, 0
  %133 = zext i1 %132 to i8
  store i8 %133, ptr %16, align 1, !tbaa !77
  call void @llvm.lifetime.start.p0(i64 8, ptr %17) #18
  %134 = load ptr, ptr %12, align 8, !tbaa !3
  %135 = getelementptr inbounds nuw %"class.duckdb_re2::Regexp", ptr %134, i32 0, i32 0
  %136 = load i8, ptr %135, align 8, !tbaa !12
  %137 = zext i8 %136 to i32
  %138 = icmp eq i32 %137, 3
  br i1 %138, label %139, label %142

139:                                              ; preds = %128
  %140 = load ptr, ptr %12, align 8, !tbaa !3
  %141 = getelementptr inbounds nuw %"class.duckdb_re2::Regexp", ptr %140, i32 0, i32 7
  br label %147

142:                                              ; preds = %128
  %143 = load ptr, ptr %12, align 8, !tbaa !3
  %144 = getelementptr inbounds nuw %"class.duckdb_re2::Regexp", ptr %143, i32 0, i32 7
  %145 = getelementptr inbounds nuw %struct.anon.2, ptr %144, i32 0, i32 1
  %146 = load ptr, ptr %145, align 8, !tbaa !20
  br label %147

147:                                              ; preds = %142, %139
  %148 = phi ptr [ %141, %139 ], [ %146, %142 ]
  store ptr %148, ptr %17, align 8, !tbaa !74
  call void @llvm.lifetime.start.p0(i64 4, ptr %18) #18
  %149 = load ptr, ptr %12, align 8, !tbaa !3
  %150 = getelementptr inbounds nuw %"class.duckdb_re2::Regexp", ptr %149, i32 0, i32 0
  %151 = load i8, ptr %150, align 8, !tbaa !12
  %152 = zext i8 %151 to i32
  %153 = icmp eq i32 %152, 3
  br i1 %153, label %154, label %155

154:                                              ; preds = %147
  br label %160

155:                                              ; preds = %147
  %156 = load ptr, ptr %12, align 8, !tbaa !3
  %157 = getelementptr inbounds nuw %"class.duckdb_re2::Regexp", ptr %156, i32 0, i32 7
  %158 = getelementptr inbounds nuw %struct.anon.2, ptr %157, i32 0, i32 0
  %159 = load i32, ptr %158, align 8, !tbaa !20
  br label %160

160:                                              ; preds = %155, %154
  %161 = phi i32 [ 1, %154 ], [ %159, %155 ]
  store i32 %161, ptr %18, align 4, !tbaa !29
  %162 = load i8, ptr %16, align 1, !tbaa !77, !range !44, !noundef !45
  %163 = trunc i8 %162 to i1
  %164 = load ptr, ptr %17, align 8, !tbaa !74
  %165 = load i32, ptr %18, align 4, !tbaa !29
  %166 = load ptr, ptr %7, align 8, !tbaa !46
  call void @_ZN10duckdb_re219ConvertRunesToBytesEbPiiPNSt7__cxx1112basic_stringIcSt11char_traitsIcESaIcEEE(i1 noundef zeroext %163, ptr noundef %164, i32 noundef %165, ptr noundef %166)
  %167 = load ptr, ptr %12, align 8, !tbaa !3
  %168 = call noundef i32 @_ZN10duckdb_re26Regexp11parse_flagsEv(ptr noundef nonnull align 8 dereferenceable(40) %167)
  %169 = call noundef i32 @_ZN10duckdb_re2anENS_6Regexp10ParseFlagsES1_(i32 noundef %168, i32 noundef 1)
  %170 = icmp ne i32 %169, 0
  %171 = load ptr, ptr %8, align 8, !tbaa !138
  %172 = zext i1 %170 to i8
  store i8 %172, ptr %171, align 1, !tbaa !77
  store i1 true, ptr %5, align 1
  store i32 1, ptr %11, align 4
  call void @llvm.lifetime.end.p0(i64 4, ptr %18) #18
  call void @llvm.lifetime.end.p0(i64 8, ptr %17) #18
  call void @llvm.lifetime.end.p0(i64 1, ptr %16) #18
  br label %173

173:                                              ; preds = %160, %77
  call void @llvm.lifetime.end.p0(i64 8, ptr %12) #18
  br label %174

174:                                              ; preds = %173, %59
  call void @llvm.lifetime.end.p0(i64 4, ptr %10) #18
  br label %175

175:                                              ; preds = %174, %27
  %176 = load i1, ptr %5, align 1
  ret i1 %176

177:                                              ; preds = %124
  %178 = load ptr, ptr %14, align 8
  %179 = load i32, ptr %15, align 4
  %180 = insertvalue { ptr, i32 } poison, ptr %178, 0
  %181 = insertvalue { ptr, i32 } %180, i32 %179, 1
  resume { ptr, i32 } %181
}