; Function Attrs: mustprogress uwtable
define hidden noundef zeroext i1 @_ZN10duckdb_re26Regexp14RequiredPrefixEPNSt7__cxx1112basic_stringIcSt11char_traitsIcESaIcEEEPbPPS0_(ptr noundef nonnull readonly align 8 captures(none) dereferenceable(40) %0, ptr noundef initializes((8, 16)) %1, ptr noundef writeonly captures(none) initializes((0, 1)) %2, ptr noundef writeonly captures(none) initializes((0, 8)) %3) local_unnamed_addr #7 align 2 personality ptr @__gxx_personality_v0 {
  %5 = getelementptr inbounds nuw i8, ptr %1, i64 8
  store i64 0, ptr %5, align 8, !tbaa !31
  %6 = load ptr, ptr %1, align 8, !tbaa !30
  store i8 0, ptr %6, align 1, !tbaa !32
  store i8 0, ptr %2, align 1, !tbaa !110
  store ptr null, ptr %3, align 8, !tbaa !41
  %7 = load i8, ptr %0, align 8, !tbaa !3
  %.not = icmp eq i8 %7, 5
  br i1 %.not, label %.preheader49, label %.critedge.thread

.preheader49:                                     ; preds = %4
  %8 = getelementptr inbounds nuw i8, ptr %0, i64 6
  %9 = load i16, ptr %8, align 2, !tbaa !13
  %10 = zext i16 %9 to i32
  %.not60 = icmp eq i16 %9, 0
  br i1 %.not60, label %.critedge.thread, label %.lr.ph

.lr.ph:                                           ; preds = %.preheader49
  %11 = icmp eq i16 %9, 1
  %12 = getelementptr inbounds nuw i8, ptr %0, i64 8
  %13 = load ptr, ptr %12, align 8
  %.0.i = select i1 %11, ptr %12, ptr %13
  %wide.trip.count = zext i16 %9 to i64
  br label %14

14:                                               ; preds = %.lr.ph, %19
  %indvars.iv65 = phi i64 [ 1, %.lr.ph ], [ %indvars.iv.next66, %19 ]
  %indvars.iv = phi i64 [ 0, %.lr.ph ], [ %indvars.iv.next, %19 ]
  %15 = getelementptr inbounds nuw ptr, ptr %.0.i, i64 %indvars.iv
  %16 = load ptr, ptr %15, align 8, !tbaa !41
  %17 = load i8, ptr %16, align 8, !tbaa !3
  %18 = icmp eq i8 %17, 18
  br i1 %18, label %19, label %.critedge

19:                                               ; preds = %14
  %indvars.iv.next = add nuw nsw i64 %indvars.iv, 1
  %exitcond.not = icmp eq i64 %indvars.iv.next, %wide.trip.count
  %indvars.iv.next66 = add nuw nsw i64 %indvars.iv65, 1
  br i1 %exitcond.not, label %.critedge.thread, label %14, !llvm.loop !111

.critedge:                                        ; preds = %14
  %20 = trunc nuw nsw i64 %indvars.iv to i32
  %.not48 = icmp eq i64 %indvars.iv, 0
  br i1 %.not48, label %.critedge.thread, label %21

21:                                               ; preds = %.critedge
  %22 = and i64 %indvars.iv, 4294967295
  %23 = getelementptr inbounds nuw ptr, ptr %13, i64 %22
  %24 = load ptr, ptr %23, align 8, !tbaa !41
  %25 = load i8, ptr %24, align 8, !tbaa !3
  %.off = add i8 %25, -3
  %switch = icmp ult i8 %.off, 2
  br i1 %switch, label %26, label %.critedge.thread

26:                                               ; preds = %21
  %27 = add nuw nsw i32 %20, 1
  %28 = icmp samesign ult i32 %27, %10
  br i1 %28, label %.lr.ph58, label %47

._crit_edge:                                      ; preds = %.lr.ph58
  %29 = zext i16 %44 to i32
  %.pre = load ptr, ptr %12, align 8
  %30 = icmp ult i16 %44, 2
  %.0.i45 = select i1 %30, ptr %12, ptr %.pre
  %31 = zext nneg i32 %27 to i64
  %32 = getelementptr inbounds nuw ptr, ptr %.0.i45, i64 %31
  %33 = sub nsw i32 %29, %27
  %34 = getelementptr inbounds nuw i8, ptr %0, i64 2
  %35 = load i16, ptr %34, align 2, !tbaa !11
  %36 = zext i16 %35 to i32
  %37 = tail call noundef ptr @_ZN10duckdb_re26Regexp17ConcatOrAlternateENS_8RegexpOpEPPS0_iNS0_10ParseFlagsEb(i32 noundef 5, ptr noundef nonnull readonly %32, i32 noundef %33, i32 noundef %36, i1 noundef zeroext false)
  %.pre70 = load i8, ptr %24, align 8, !tbaa !3
  br label %55

.lr.ph58:                                         ; preds = %26, %.lr.ph58
  %indvars.iv68 = phi i64 [ %indvars.iv.next69, %.lr.ph58 ], [ %indvars.iv65, %26 ]
  %38 = phi i16 [ %44, %.lr.ph58 ], [ %9, %26 ]
  %39 = icmp ult i16 %38, 2
  %40 = load ptr, ptr %12, align 8
  %.0.i46 = select i1 %39, ptr %12, ptr %40
  %41 = getelementptr inbounds nuw ptr, ptr %.0.i46, i64 %indvars.iv68
  %42 = load ptr, ptr %41, align 8, !tbaa !41
  %43 = tail call noundef ptr @_ZN10duckdb_re26Regexp6IncrefEv(ptr noundef nonnull align 8 dereferenceable(40) %42)
  %indvars.iv.next69 = add nuw nsw i64 %indvars.iv68, 1
  %44 = load i16, ptr %8, align 2, !tbaa !13
  %45 = zext i16 %44 to i64
  %46 = icmp samesign ult i64 %indvars.iv.next69, %45
  br i1 %46, label %.lr.ph58, label %._crit_edge, !llvm.loop !112

47:                                               ; preds = %26
  %48 = tail call noalias noundef nonnull dereferenceable(40) ptr @_Znwm(i64 noundef 40) #31
  %49 = getelementptr inbounds nuw i8, ptr %0, i64 2
  %50 = load i16, ptr %49, align 2, !tbaa !11
  store i8 2, ptr %48, align 8, !tbaa !3
  %51 = getelementptr inbounds nuw i8, ptr %48, i64 1
  store i8 0, ptr %51, align 1, !tbaa !10
  %52 = getelementptr inbounds nuw i8, ptr %48, i64 2
  store i16 %50, ptr %52, align 2, !tbaa !11
  %53 = getelementptr inbounds nuw i8, ptr %48, i64 4
  store i16 1, ptr %53, align 4, !tbaa !12
  %54 = getelementptr inbounds nuw i8, ptr %48, i64 6
  tail call void @llvm.memset.p0.i64(ptr noundef nonnull align 2 dereferenceable(34) %54, i8 0, i64 34, i1 false)
  br label %55

55:                                               ; preds = %47, %._crit_edge
  %56 = phi i8 [ %25, %47 ], [ %.pre70, %._crit_edge ]
  %storemerge = phi ptr [ %48, %47 ], [ %37, %._crit_edge ]
  store ptr %storemerge, ptr %3, align 8, !tbaa !41
  %57 = getelementptr inbounds nuw i8, ptr %24, i64 2
  %58 = load i16, ptr %57, align 2, !tbaa !11
  %59 = and i16 %58, 32
  %60 = icmp ne i16 %59, 0
  %61 = icmp eq i8 %56, 3
  br i1 %61, label %.thread, label %63

.thread:                                          ; preds = %55
  %62 = getelementptr inbounds nuw i8, ptr %24, i64 24
  br label %68

63:                                               ; preds = %55
  %64 = getelementptr inbounds nuw i8, ptr %24, i64 32
  %65 = load ptr, ptr %64, align 8, !tbaa !32
  %66 = getelementptr inbounds nuw i8, ptr %24, i64 24
  %67 = load i32, ptr %66, align 8, !tbaa !32
  br label %68

68:                                               ; preds = %.thread, %63
  %69 = phi ptr [ %65, %63 ], [ %62, %.thread ]
  %70 = phi i32 [ %67, %63 ], [ 1, %.thread ]
  tail call void @_ZN10duckdb_re219ConvertRunesToBytesEbPiiPNSt7__cxx1112basic_stringIcSt11char_traitsIcESaIcEEE(i1 noundef zeroext %60, ptr noundef %69, i32 noundef %70, ptr noundef nonnull %1)
  %71 = load i16, ptr %57, align 2, !tbaa !11
  %72 = trunc i16 %71 to i8
  %73 = and i8 %72, 1
  store i8 %73, ptr %2, align 1, !tbaa !110
  br label %.critedge.thread

.critedge.thread:                                 ; preds = %19, %.preheader49, %21, %.critedge, %68, %4
  %.0 = phi i1 [ false, %4 ], [ false, %.critedge ], [ true, %68 ], [ false, %21 ], [ false, %.preheader49 ], [ false, %19 ]
  ret i1 %.0
}